target datalayout = "e-m:e-p270:32:32-p271:32:32-p272:64:64-i64:64-i128:128-f80:128-n8:16:32:64-S128"
target triple = "x86_64-pc-linux-gnu"

%struct.vec_t = type { ptr, i32 }

@hf_gmhdr_trailer = internal global i32 0, align 4
@ett_gmhdr = internal global i32 0, align 4
@proto_gmhdr = internal global i32 0, align 4
@gmhdr_summary_in_tree = internal global i8 1, align 1
@.str.98 = private unnamed_addr constant [29 x i8] c", Length: %u, Checksum: 0x%x\00", align 1

; Function Attrs: inlinehint nounwind null_pointer_is_valid sspstrong uwtable
define internal zeroext i16 @pntoh16(ptr noundef %0) #3 {
  %2 = alloca ptr, align 8
  store ptr %0, ptr %2, align 8
  %3 = load ptr, ptr %2, align 8
  %4 = getelementptr i8, ptr %3, i64 0
  %5 = load i8, ptr %4, align 1
  %6 = zext i8 %5 to i16
  %7 = zext i16 %6 to i32
  %8 = shl i32 %7, 8
  %9 = load ptr, ptr %2, align 8
  %10 = getelementptr i8, ptr %9, i64 1
  %11 = load i8, ptr %10, align 1
  %12 = zext i8 %11 to i16
  %13 = zext i16 %12 to i32
  %14 = shl i32 %13, 0
  %15 = or i32 %8, %14
  %16 = trunc i32 %15 to i16
  ret i16 %16
}

; Function Attrs: null_pointer_is_valid sspstrong uwtable
define internal i32 @dissect_gmtrailer(ptr noundef %0, ptr noundef %1, ptr noundef %2, ptr noundef %3) #0 {
  %5 = alloca i32, align 4
  %6 = alloca ptr, align 8
  %7 = alloca ptr, align 8
  %8 = alloca ptr, align 8
  %9 = alloca ptr, align 8
  %10 = alloca ptr, align 8
  %11 = alloca i32, align 4
  %12 = alloca i32, align 4
  %13 = alloca ptr, align 8
  %14 = alloca i32, align 4
  %15 = alloca i16, align 2
  %16 = alloca i16, align 2
  %17 = alloca i16, align 2
  %18 = alloca i32, align 4
  %19 = alloca %struct.vec_t, align 8
  store ptr %0, ptr %6, align 8
  store ptr %1, ptr %7, align 8
  store ptr %2, ptr %8, align 8
  store ptr %3, ptr %9, align 8
  call void @llvm.lifetime.start.p0(i64 8, ptr %10) #5
  call void @llvm.lifetime.start.p0(i64 4, ptr %11) #5
  call void @llvm.lifetime.start.p0(i64 4, ptr %12) #5
  call void @llvm.lifetime.start.p0(i64 8, ptr %13) #5
  store ptr null, ptr %13, align 8
  call void @llvm.lifetime.start.p0(i64 4, ptr %14) #5
  call void @llvm.lifetime.start.p0(i64 2, ptr %15) #5
  call void @llvm.lifetime.start.p0(i64 2, ptr %16) #5
  call void @llvm.lifetime.start.p0(i64 2, ptr %17) #5
  %20 = load ptr, ptr %6, align 8
  %21 = call i32 @tvb_captured_length(ptr noundef %20)
  store i32 %21, ptr %11, align 4
  %22 = load i32, ptr %11, align 4
  %23 = icmp ult i32 %22, 5
  br i1 %23, label %24, label %25

24:                                               ; preds = %4
  store i32 0, ptr %5, align 4
  store i32 1, ptr %18, align 4
  br label %143

25:                                               ; preds = %4
  store i16 0, ptr %17, align 2
  %26 = load ptr, ptr %6, align 8
  %27 = load i32, ptr %11, align 4
  %28 = sub i32 %27, 4
  %29 = call zeroext i16 @tvb_get_ntohs(ptr noundef %26, i32 noundef %28)
  %30 = zext i16 %29 to i32
  %31 = icmp ne i32 %30, 8933
  br i1 %31, label %32, label %46

32:                                               ; preds = %25
  %33 = load i32, ptr %11, align 4
  %34 = icmp ult i32 %33, 10
  br i1 %34, label %35, label %36

35:                                               ; preds = %32
  store i32 0, ptr %5, align 4
  store i32 1, ptr %18, align 4
  br label %143

36:                                               ; preds = %32
  %37 = load ptr, ptr %6, align 8
  %38 = load i32, ptr %11, align 4
  %39 = sub i32 %38, 8
  %40 = call zeroext i16 @tvb_get_ntohs(ptr noundef %37, i32 noundef %39)
  %41 = zext i16 %40 to i32
  %42 = icmp eq i32 %41, 8933
  br i1 %42, label %43, label %44

43:                                               ; preds = %36
  store i16 4, ptr %17, align 2
  br label %45

44:                                               ; preds = %36
  store i32 0, ptr %5, align 4
  store i32 1, ptr %18, align 4
  br label %143

45:                                               ; preds = %43
  br label %46

46:                                               ; preds = %45, %25
  %47 = load ptr, ptr %6, align 8
  %48 = load i32, ptr %11, align 4
  %49 = load i16, ptr %17, align 2
  %50 = zext i16 %49 to i32
  %51 = sub i32 %48, %50
  %52 = sub i32 %51, 5
  %53 = call zeroext i8 @tvb_get_uint8(ptr noundef %47, i32 noundef %52)
  %54 = zext i8 %53 to i32
  store i32 %54, ptr %12, align 4
  %55 = load i32, ptr %11, align 4
  %56 = load i16, ptr %17, align 2
  %57 = zext i16 %56 to i32
  %58 = sub i32 %55, %57
  %59 = sub i32 %58, 5
  %60 = load i32, ptr %12, align 4
  %61 = icmp ne i32 %59, %60
  br i1 %61, label %62, label %63

62:                                               ; preds = %46
  store i32 0, ptr %5, align 4
  store i32 1, ptr %18, align 4
  br label %143

63:                                               ; preds = %46
  %64 = load i32, ptr %11, align 4
  %65 = load i16, ptr %17, align 2
  %66 = zext i16 %65 to i32
  %67 = sub i32 %64, %66
  %68 = sub i32 %67, 5
  %69 = load i32, ptr %12, align 4
  %70 = sub i32 %68, %69
  store i32 %70, ptr %14, align 4
  %71 = load ptr, ptr %6, align 8
  %72 = load i32, ptr %11, align 4
  %73 = load i16, ptr %17, align 2
  %74 = zext i16 %73 to i32
  %75 = sub i32 %72, %74
  %76 = sub i32 %75, 2
  %77 = call zeroext i16 @tvb_get_ntohs(ptr noundef %71, i32 noundef %76)
  store i16 %77, ptr %15, align 2
  call void @llvm.lifetime.start.p0(i64 16, ptr %19) #5
  br label %78

78:                                               ; preds = %63
  %79 = load i32, ptr %12, align 4
  %80 = add i32 %79, 3
  %81 = getelementptr inbounds nuw %struct.vec_t, ptr %19, i32 0, i32 1
  store i32 %80, ptr %81, align 8
  %82 = load ptr, ptr %6, align 8
  %83 = load i32, ptr %14, align 4
  %84 = getelementptr inbounds nuw %struct.vec_t, ptr %19, i32 0, i32 1
  %85 = load i32, ptr %84, align 8
  %86 = call ptr @tvb_get_ptr(ptr noundef %82, i32 noundef %83, i32 noundef %85)
  %87 = getelementptr inbounds nuw %struct.vec_t, ptr %19, i32 0, i32 0
  store ptr %86, ptr %87, align 8
  br label %88

88:                                               ; preds = %78
  br label %89

89:                                               ; preds = %88
  %90 = call i32 @in_cksum(ptr noundef %19, i32 noundef 1)
  %91 = trunc i32 %90 to i16
  store i16 %91, ptr %16, align 2
  %92 = call zeroext i16 @pntoh16(ptr noundef %16)
  %93 = zext i16 %92 to i32
  %94 = load i16, ptr %15, align 2
  %95 = zext i16 %94 to i32
  %96 = icmp ne i32 %93, %95
  br i1 %96, label %97, label %98

97:                                               ; preds = %89
  store i32 0, ptr %5, align 4
  store i32 1, ptr %18, align 4
  br label %99

98:                                               ; preds = %89
  store i32 0, ptr %18, align 4
  br label %99

99:                                               ; preds = %98, %97
  call void @llvm.lifetime.end.p0(i64 16, ptr %19) #5
  %100 = load i32, ptr %18, align 4
  switch i32 %100, label %143 [
    i32 0, label %101
  ]

101:                                              ; preds = %99
  %102 = load ptr, ptr %8, align 8
  %103 = icmp ne ptr %102, null
  br i1 %103, label %104, label %141

104:                                              ; preds = %101
  %105 = load ptr, ptr %8, align 8
  %106 = load i32, ptr @proto_gmhdr, align 4
  %107 = load ptr, ptr %6, align 8
  %108 = load i32, ptr %14, align 4
  %109 = load i32, ptr %12, align 4
  %110 = add i32 %109, 5
  %111 = call ptr @proto_tree_add_item(ptr noundef %105, i32 noundef %106, ptr noundef %107, i32 noundef %108, i32 noundef %110, i32 noundef 0)
  store ptr %111, ptr %10, align 8
  %112 = load i8, ptr @gmhdr_summary_in_tree, align 1, !range !6, !noundef !7
  %113 = trunc i8 %112 to i1
  br i1 %113, label %114, label %119

114:                                              ; preds = %104
  %115 = load ptr, ptr %10, align 8
  %116 = load i32, ptr %12, align 4
  %117 = load i16, ptr %15, align 2
  %118 = zext i16 %117 to i32
  call void (ptr, ptr, ...) @proto_item_append_text(ptr noundef %115, ptr noundef @.str.98, i32 noundef %116, i32 noundef %118)
  br label %119

119:                                              ; preds = %114, %104
  %120 = load ptr, ptr %10, align 8
  %121 = load i32, ptr @ett_gmhdr, align 4
  %122 = call ptr @proto_item_add_subtree(ptr noundef %120, i32 noundef %121)
  store ptr %122, ptr %13, align 8
  %123 = load ptr, ptr %6, align 8
  %124 = load ptr, ptr %7, align 8
  %125 = load ptr, ptr %13, align 8
  %126 = load i32, ptr %14, align 4
  %127 = load i32, ptr %12, align 4
  %128 = trunc i32 %127 to i16
  call void @dissect_gmtlv(ptr noundef %123, ptr noundef %124, ptr noundef %125, i32 noundef %126, i16 noundef zeroext %128)
  %129 = load i16, ptr %17, align 2
  %130 = icmp ne i16 %129, 0
  br i1 %130, label %131, label %140

131:                                              ; preds = %119
  %132 = load ptr, ptr %8, align 8
  %133 = load i32, ptr @hf_gmhdr_trailer, align 4
  %134 = load ptr, ptr %6, align 8
  %135 = load i32, ptr %12, align 4
  %136 = add i32 %135, 5
  %137 = load i16, ptr %17, align 2
  %138 = zext i16 %137 to i32
  %139 = call ptr @proto_tree_add_item(ptr noundef %132, i32 noundef %133, ptr noundef %134, i32 noundef %136, i32 noundef %138, i32 noundef 0)
  br label %140

140:                                              ; preds = %131, %119
  br label %141

141:                                              ; preds = %140, %101
  %142 = load i32, ptr %11, align 4
  store i32 %142, ptr %5, align 4
  store i32 1, ptr %18, align 4
  br label %143

143:                                              ; preds = %141, %99, %62, %44, %35, %24
  call void @llvm.lifetime.end.p0(i64 2, ptr %17) #5
  call void @llvm.lifetime.end.p0(i64 2, ptr %16) #5
  call void @llvm.lifetime.end.p0(i64 2, ptr %15) #5
  call void @llvm.lifetime.end.p0(i64 4, ptr %14) #5
  call void @llvm.lifetime.end.p0(i64 8, ptr %13) #5
  call void @llvm.lifetime.end.p0(i64 4, ptr %12) #5
  call void @llvm.lifetime.end.p0(i64 4, ptr %11) #5
  call void @llvm.lifetime.end.p0(i64 8, ptr %10) #5
  %144 = load i32, ptr %5, align 4
  ret i32 %144
}

; Function Attrs: null_pointer_is_valid sspstrong uwtable
define internal zeroext i1 @dissect_gmtrailer_heur(ptr noundef %0, ptr noundef %1, ptr noundef %2, ptr noundef %3) #0 {
  %5 = alloca ptr, align 8
  %6 = alloca ptr, align 8
  %7 = alloca ptr, align 8
  %8 = alloca ptr, align 8
  store ptr %0, ptr %5, align 8
  store ptr %1, ptr %6, align 8
  store ptr %2, ptr %7, align 8
  store ptr %3, ptr %8, align 8
  %9 = load ptr, ptr %5, align 8
  %10 = load ptr, ptr %6, align 8
  %11 = load ptr, ptr %7, align 8
  %12 = load ptr, ptr %8, align 8
  %13 = call i32 @dissect_gmtrailer(ptr noundef %9, ptr noundef %10, ptr noundef %11, ptr noundef %12)
  %14 = icmp sgt i32 %13, 0
  ret i1 %14
}