; Function Attrs: null_pointer_is_valid sspstrong uwtable
define internal zeroext i1 @dissect_gmtrailer_heur(ptr noundef %0, ptr noundef %1, ptr noundef %2, ptr readnone captures(none) %3) #0 {
  %5 = alloca %struct.vec_t, align 8
  %6 = tail call i32 @tvb_captured_length(ptr noundef %0)
  %7 = icmp ult i32 %6, 5
  br i1 %7, label %dissect_gmtrailer.exit, label %8

8:                                                ; preds = %4
  %9 = add i32 %6, -4
  %10 = tail call zeroext i16 @tvb_get_ntohs(ptr noundef %0, i32 noundef %9)
  %.not.i = icmp eq i16 %10, 8933
  br i1 %.not.i, label %17, label %11

11:                                               ; preds = %8
  %12 = icmp ult i32 %6, 10
  br i1 %12, label %dissect_gmtrailer.exit, label %13

13:                                               ; preds = %11
  %14 = add i32 %6, -8
  %15 = tail call zeroext i16 @tvb_get_ntohs(ptr noundef %0, i32 noundef %14)
  %16 = icmp eq i16 %15, 8933
  br i1 %16, label %17, label %dissect_gmtrailer.exit

17:                                               ; preds = %13, %8
  %.044.i = phi i32 [ 0, %8 ], [ 4, %13 ]
  %18 = sub nuw i32 %6, %.044.i
  %19 = add i32 %18, -5
  %20 = tail call zeroext i8 @tvb_get_uint8(ptr noundef %0, i32 noundef %19)
  %21 = zext i8 %20 to i32
  %.not49.i = icmp eq i32 %19, %21
  br i1 %.not49.i, label %22, label %dissect_gmtrailer.exit

22:                                               ; preds = %17
  %23 = add nsw i32 %18, -2
  %24 = tail call zeroext i16 @tvb_get_ntohs(ptr noundef %0, i32 noundef %23)
  call void @llvm.lifetime.start.p0(i64 16, ptr nonnull %5) #5
  %25 = getelementptr inbounds nuw i8, ptr %5, i64 8
  store i32 %23, ptr %25, align 8
  %26 = tail call ptr @tvb_get_ptr(ptr noundef %0, i32 noundef 0, i32 noundef %23)
  store ptr %26, ptr %5, align 8
  %27 = call i32 @in_cksum(ptr noundef nonnull %5, i32 noundef 1)
  %trunc.i = trunc i32 %27 to i16
  %28 = call i16 @llvm.bswap.i16(i16 %trunc.i)
  %29 = zext i16 %24 to i32
  %.not50.i = icmp eq i16 %28, %24
  call void @llvm.lifetime.end.p0(i64 16, ptr nonnull %5) #5
  br i1 %.not50.i, label %30, label %dissect_gmtrailer.exit

30:                                               ; preds = %22
  %.not51.i = icmp eq ptr %2, null
  br i1 %.not51.i, label %dissect_gmtrailer.exit, label %31

31:                                               ; preds = %30
  %32 = load i32, ptr @proto_gmhdr, align 4
  %33 = call ptr @proto_tree_add_item(ptr noundef nonnull %2, i32 noundef %32, ptr noundef %0, i32 noundef 0, i32 noundef %18, i32 noundef 0)
  %34 = load i8, ptr @gmhdr_summary_in_tree, align 1, !range !6, !noundef !7
  %35 = trunc nuw i8 %34 to i1
  br i1 %35, label %36, label %37

36:                                               ; preds = %31
  call void (ptr, ptr, ...) @proto_item_append_text(ptr noundef %33, ptr noundef nonnull @.str.98, i32 noundef %19, i32 noundef %29)
  br label %37

37:                                               ; preds = %36, %31
  %38 = load i32, ptr @ett_gmhdr, align 4
  %39 = call ptr @proto_item_add_subtree(ptr noundef %33, i32 noundef %38)
  %40 = zext i8 %20 to i16
  call fastcc void @dissect_gmtlv(ptr noundef %0, ptr noundef %1, ptr noundef %39, i32 noundef 0, i16 noundef zeroext %40)
  br i1 %.not.i, label %dissect_gmtrailer.exit, label %41

41:                                               ; preds = %37
  %42 = load i32, ptr @hf_gmhdr_trailer, align 4
  %43 = call ptr @proto_tree_add_item(ptr noundef nonnull %2, i32 noundef %42, ptr noundef %0, i32 noundef %18, i32 noundef %.044.i, i32 noundef 0)
  br label %dissect_gmtrailer.exit

dissect_gmtrailer.exit:                           ; preds = %4, %11, %13, %17, %22, %30, %37, %41
  %.045.i = phi i32 [ 0, %22 ], [ 0, %4 ], [ 0, %11 ], [ 0, %13 ], [ 0, %17 ], [ %6, %37 ], [ %6, %41 ], [ %6, %30 ]
  %44 = icmp sgt i32 %.045.i, 0
  ret i1 %44
}